; Function Attrs: mustprogress uwtable
define hidden void @_ZNK4cvc58internal7Integer15extractBitRangeEjj(ptr dead_on_unwind noalias writable sret(%"class.cvc5::internal::Integer") align 8 %0, ptr noundef nonnull align 8 dereferenceable(16) %1, i32 noundef %2, i32 noundef %3) local_unnamed_addr #0 align 2 personality ptr @__gxx_personality_v0 {
  %5 = alloca %class.__gmp_expr, align 8
  %6 = alloca %class.__gmp_expr, align 8
  %7 = add i32 %3, %2
  call void @llvm.lifetime.start.p0(i64 16, ptr nonnull %5) #16
  call void @__gmpz_init(ptr noundef nonnull align 8 dereferenceable(16) %5) #16
  call void @llvm.lifetime.start.p0(i64 16, ptr nonnull %6) #16
  call void @__gmpz_init(ptr noundef nonnull align 8 dereferenceable(16) %6) #16
  %8 = zext i32 %7 to i64
  invoke void @__gmpz_fdiv_r_2exp(ptr noundef nonnull %5, ptr noundef nonnull %1, i64 noundef %8)
          to label %9 unwind label %18

9:                                                ; preds = %4
  %10 = zext i32 %3 to i64
  invoke void @__gmpz_fdiv_q_2exp(ptr noundef nonnull %6, ptr noundef nonnull %5, i64 noundef %10)
          to label %11 unwind label %18

11:                                               ; preds = %9
  invoke void @__gmpz_init_set(ptr noundef nonnull align 8 dereferenceable(16) %0, ptr noundef nonnull align 8 dereferenceable(16) %6)
          to label %_ZN4cvc58internal7IntegerC2ERK10__gmp_exprIA1_12__mpz_structS4_E.exit unwind label %18

_ZN4cvc58internal7IntegerC2ERK10__gmp_exprIA1_12__mpz_structS4_E.exit: ; preds = %11
  invoke void @__gmpz_clear(ptr noundef nonnull align 8 dereferenceable(16) %6)
          to label %_ZN10__gmp_exprIA1_12__mpz_structS1_ED2Ev.exit unwind label %12

12:                                               ; preds = %_ZN4cvc58internal7IntegerC2ERK10__gmp_exprIA1_12__mpz_structS4_E.exit
  %13 = landingpad { ptr, i32 }
          catch ptr null
  %14 = extractvalue { ptr, i32 } %13, 0
  call void @__clang_call_terminate(ptr %14) #19
  unreachable

_ZN10__gmp_exprIA1_12__mpz_structS1_ED2Ev.exit:   ; preds = %_ZN4cvc58internal7IntegerC2ERK10__gmp_exprIA1_12__mpz_structS4_E.exit
  call void @llvm.lifetime.end.p0(i64 16, ptr nonnull %6) #16
  invoke void @__gmpz_clear(ptr noundef nonnull align 8 dereferenceable(16) %5)
          to label %_ZN10__gmp_exprIA1_12__mpz_structS1_ED2Ev.exit6 unwind label %15

15:                                               ; preds = %_ZN10__gmp_exprIA1_12__mpz_structS1_ED2Ev.exit
  %16 = landingpad { ptr, i32 }
          catch ptr null
  %17 = extractvalue { ptr, i32 } %16, 0
  call void @__clang_call_terminate(ptr %17) #19
  unreachable

_ZN10__gmp_exprIA1_12__mpz_structS1_ED2Ev.exit6:  ; preds = %_ZN10__gmp_exprIA1_12__mpz_structS1_ED2Ev.exit
  call void @llvm.lifetime.end.p0(i64 16, ptr nonnull %5) #16
  ret void

18:                                               ; preds = %11, %9, %4
  %19 = landingpad { ptr, i32 }
          cleanup
  invoke void @__gmpz_clear(ptr noundef nonnull align 8 dereferenceable(16) %6)
          to label %_ZN10__gmp_exprIA1_12__mpz_structS1_ED2Ev.exit7 unwind label %20

20:                                               ; preds = %18
  %21 = landingpad { ptr, i32 }
          catch ptr null
  %22 = extractvalue { ptr, i32 } %21, 0
  call void @__clang_call_terminate(ptr %22) #19
  unreachable

_ZN10__gmp_exprIA1_12__mpz_structS1_ED2Ev.exit7:  ; preds = %18
  call void @llvm.lifetime.end.p0(i64 16, ptr nonnull %6) #16
  invoke void @__gmpz_clear(ptr noundef nonnull align 8 dereferenceable(16) %5)
          to label %_ZN10__gmp_exprIA1_12__mpz_structS1_ED2Ev.exit8 unwind label %23

23:                                               ; preds = %_ZN10__gmp_exprIA1_12__mpz_structS1_ED2Ev.exit7
  %24 = landingpad { ptr, i32 }
          catch ptr null
  %25 = extractvalue { ptr, i32 } %24, 0
  call void @__clang_call_terminate(ptr %25) #19
  unreachable

_ZN10__gmp_exprIA1_12__mpz_structS1_ED2Ev.exit8:  ; preds = %_ZN10__gmp_exprIA1_12__mpz_structS1_ED2Ev.exit7
  call void @llvm.lifetime.end.p0(i64 16, ptr nonnull %5) #16
  resume { ptr, i32 } %19
}